target datalayout = "e-m:e-p270:32:32-p271:32:32-p272:64:64-i64:64-i128:128-f80:128-n8:16:32:64-S128"
target triple = "x86_64-pc-linux-gnu"

%struct.nsis_bzstream = type { ptr, i32, i32, i32, ptr, i32, i32, i32, ptr, ptr, ptr, ptr }
%struct.DState = type { ptr, i32, i8, i32, i8, i32, i32, i32, i32, i32, i8, i32, i32, i32, i32, i32, [256 x i32], i32, [257 x i32], [257 x i32], ptr, ptr, ptr, i32, i32, i32, i32, i32, [256 x i8], [16 x i8], [256 x i8], [4096 x i8], [16 x i32], [18002 x i8], [18002 x i8], [6 x [258 x i8]], [6 x [258 x i32]], [6 x [258 x i32]], [6 x [258 x i32]], [6 x i32], i32, i32, i32, i32, i32, i32, i32, i32, i32, i32, i32, i32, i32, i32, i32, i32, i32, i32, i32, i32, i32, ptr, ptr, ptr }

; Function Attrs: nounwind uwtable
define internal i32 @bz_config_ok() #0 {
  ret i32 1
}

; Function Attrs: nounwind uwtable
define i32 @nsis_BZ2_bzDecompressInit(ptr noundef %0, i32 noundef %1, i32 noundef %2) #0 {
  %4 = alloca i32, align 4
  %5 = alloca ptr, align 8
  %6 = alloca i32, align 4
  %7 = alloca i32, align 4
  %8 = alloca ptr, align 8
  store ptr %0, ptr %5, align 8
  store i32 %1, ptr %6, align 4
  store i32 %2, ptr %7, align 4
  %9 = call i32 @bz_config_ok()
  %10 = icmp ne i32 %9, 0
  br i1 %10, label %12, label %11

11:                                               ; preds = %3
  store i32 -9, ptr %4, align 4
  br label %95

12:                                               ; preds = %3
  %13 = load ptr, ptr %5, align 8
  %14 = icmp eq ptr %13, null
  br i1 %14, label %15, label %16

15:                                               ; preds = %12
  store i32 -2, ptr %4, align 4
  br label %95

16:                                               ; preds = %12
  %17 = load i32, ptr %7, align 4
  %18 = icmp ne i32 %17, 0
  br i1 %18, label %19, label %23

19:                                               ; preds = %16
  %20 = load i32, ptr %7, align 4
  %21 = icmp ne i32 %20, 1
  br i1 %21, label %22, label %23

22:                                               ; preds = %19
  store i32 -2, ptr %4, align 4
  br label %95

23:                                               ; preds = %19, %16
  %24 = load i32, ptr %6, align 4
  %25 = icmp slt i32 %24, 0
  br i1 %25, label %29, label %26

26:                                               ; preds = %23
  %27 = load i32, ptr %6, align 4
  %28 = icmp sgt i32 %27, 4
  br i1 %28, label %29, label %30

29:                                               ; preds = %26, %23
  store i32 -2, ptr %4, align 4
  br label %95

30:                                               ; preds = %26
  %31 = load ptr, ptr %5, align 8
  %32 = getelementptr inbounds %struct.nsis_bzstream, ptr %31, i32 0, i32 9
  %33 = load ptr, ptr %32, align 8
  %34 = icmp eq ptr %33, null
  br i1 %34, label %35, label %38

35:                                               ; preds = %30
  %36 = load ptr, ptr %5, align 8
  %37 = getelementptr inbounds %struct.nsis_bzstream, ptr %36, i32 0, i32 9
  store ptr @default_bzalloc, ptr %37, align 8
  br label %38

38:                                               ; preds = %35, %30
  %39 = load ptr, ptr %5, align 8
  %40 = getelementptr inbounds %struct.nsis_bzstream, ptr %39, i32 0, i32 10
  %41 = load ptr, ptr %40, align 8
  %42 = icmp eq ptr %41, null
  br i1 %42, label %43, label %46

43:                                               ; preds = %38
  %44 = load ptr, ptr %5, align 8
  %45 = getelementptr inbounds %struct.nsis_bzstream, ptr %44, i32 0, i32 10
  store ptr @default_bzfree, ptr %45, align 8
  br label %46

46:                                               ; preds = %43, %38
  %47 = load ptr, ptr %5, align 8
  %48 = getelementptr inbounds %struct.nsis_bzstream, ptr %47, i32 0, i32 9
  %49 = load ptr, ptr %48, align 8
  %50 = load ptr, ptr %5, align 8
  %51 = getelementptr inbounds %struct.nsis_bzstream, ptr %50, i32 0, i32 11
  %52 = load ptr, ptr %51, align 8
  %53 = call ptr %49(ptr noundef %52, i32 noundef 64144, i32 noundef 1)
  store ptr %53, ptr %8, align 8
  %54 = load ptr, ptr %8, align 8
  %55 = icmp eq ptr %54, null
  br i1 %55, label %56, label %57

56:                                               ; preds = %46
  store i32 -3, ptr %4, align 4
  br label %95

57:                                               ; preds = %46
  %58 = load ptr, ptr %5, align 8
  %59 = load ptr, ptr %8, align 8
  %60 = getelementptr inbounds %struct.DState, ptr %59, i32 0, i32 0
  store ptr %58, ptr %60, align 8
  %61 = load ptr, ptr %8, align 8
  %62 = load ptr, ptr %5, align 8
  %63 = getelementptr inbounds %struct.nsis_bzstream, ptr %62, i32 0, i32 8
  store ptr %61, ptr %63, align 8
  %64 = load ptr, ptr %8, align 8
  %65 = getelementptr inbounds %struct.DState, ptr %64, i32 0, i32 1
  store i32 10, ptr %65, align 8
  %66 = load ptr, ptr %8, align 8
  %67 = getelementptr inbounds %struct.DState, ptr %66, i32 0, i32 8
  store i32 0, ptr %67, align 4
  %68 = load ptr, ptr %8, align 8
  %69 = getelementptr inbounds %struct.DState, ptr %68, i32 0, i32 7
  store i32 0, ptr %69, align 8
  %70 = load ptr, ptr %8, align 8
  %71 = getelementptr inbounds %struct.DState, ptr %70, i32 0, i32 26
  store i32 0, ptr %71, align 4
  %72 = load ptr, ptr %5, align 8
  %73 = getelementptr inbounds %struct.nsis_bzstream, ptr %72, i32 0, i32 2
  store i32 0, ptr %73, align 4
  %74 = load ptr, ptr %5, align 8
  %75 = getelementptr inbounds %struct.nsis_bzstream, ptr %74, i32 0, i32 3
  store i32 0, ptr %75, align 8
  %76 = load ptr, ptr %5, align 8
  %77 = getelementptr inbounds %struct.nsis_bzstream, ptr %76, i32 0, i32 6
  store i32 0, ptr %77, align 4
  %78 = load ptr, ptr %5, align 8
  %79 = getelementptr inbounds %struct.nsis_bzstream, ptr %78, i32 0, i32 7
  store i32 0, ptr %79, align 8
  %80 = load i32, ptr %7, align 4
  %81 = trunc i32 %80 to i8
  %82 = load ptr, ptr %8, align 8
  %83 = getelementptr inbounds %struct.DState, ptr %82, i32 0, i32 10
  store i8 %81, ptr %83, align 4
  %84 = load ptr, ptr %8, align 8
  %85 = getelementptr inbounds %struct.DState, ptr %84, i32 0, i32 22
  store ptr null, ptr %85, align 8
  %86 = load ptr, ptr %8, align 8
  %87 = getelementptr inbounds %struct.DState, ptr %86, i32 0, i32 21
  store ptr null, ptr %87, align 8
  %88 = load ptr, ptr %8, align 8
  %89 = getelementptr inbounds %struct.DState, ptr %88, i32 0, i32 20
  store ptr null, ptr %89, align 8
  %90 = load ptr, ptr %8, align 8
  %91 = getelementptr inbounds %struct.DState, ptr %90, i32 0, i32 11
  store i32 0, ptr %91, align 8
  %92 = load i32, ptr %6, align 4
  %93 = load ptr, ptr %8, align 8
  %94 = getelementptr inbounds %struct.DState, ptr %93, i32 0, i32 12
  store i32 %92, ptr %94, align 4
  store i32 0, ptr %4, align 4
  br label %95

95:                                               ; preds = %57, %56, %29, %22, %15, %11
  %96 = load i32, ptr %4, align 4
  ret i32 %96
}