; Function Attrs: nounwind uwtable
define range(i32 -3, 1) i32 @nsis_BZ2_bzDecompressInit(ptr noundef %0, i32 noundef %1, i32 noundef %2) local_unnamed_addr #0 {
  %4 = icmp eq ptr %0, null
  %or.cond = icmp ugt i32 %2, 1
  %or.cond38 = or i1 %4, %or.cond
  %or.cond3 = icmp ugt i32 %1, 4
  %or.cond39 = or i1 %or.cond3, %or.cond38
  br i1 %or.cond39, label %36, label %5

5:                                                ; preds = %3
  %6 = getelementptr inbounds nuw i8, ptr %0, i64 56
  %7 = load ptr, ptr %6, align 8
  %8 = icmp eq ptr %7, null
  br i1 %8, label %9, label %10

9:                                                ; preds = %5
  store ptr @default_bzalloc, ptr %6, align 8
  br label %10

10:                                               ; preds = %9, %5
  %11 = phi ptr [ @default_bzalloc, %9 ], [ %7, %5 ]
  %12 = getelementptr inbounds nuw i8, ptr %0, i64 64
  %13 = load ptr, ptr %12, align 8
  %14 = icmp eq ptr %13, null
  br i1 %14, label %15, label %16

15:                                               ; preds = %10
  store ptr @default_bzfree, ptr %12, align 8
  br label %16

16:                                               ; preds = %15, %10
  %17 = getelementptr inbounds nuw i8, ptr %0, i64 72
  %18 = load ptr, ptr %17, align 8
  %19 = tail call ptr %11(ptr noundef %18, i32 noundef 64144, i32 noundef 1) #7
  %20 = icmp eq ptr %19, null
  br i1 %20, label %36, label %21

21:                                               ; preds = %16
  store ptr %0, ptr %19, align 8
  %22 = getelementptr inbounds nuw i8, ptr %0, i64 48
  store ptr %19, ptr %22, align 8
  %23 = getelementptr inbounds nuw i8, ptr %19, i64 8
  store i32 10, ptr %23, align 8
  %24 = getelementptr inbounds nuw i8, ptr %19, i64 36
  store i32 0, ptr %24, align 4
  %25 = getelementptr inbounds nuw i8, ptr %19, i64 32
  store i32 0, ptr %25, align 8
  %26 = getelementptr inbounds nuw i8, ptr %19, i64 3188
  store i32 0, ptr %26, align 4
  %27 = getelementptr inbounds nuw i8, ptr %0, i64 12
  store i32 0, ptr %27, align 4
  %28 = getelementptr inbounds nuw i8, ptr %0, i64 16
  store i32 0, ptr %28, align 8
  %29 = getelementptr inbounds nuw i8, ptr %0, i64 36
  store i32 0, ptr %29, align 4
  %30 = getelementptr inbounds nuw i8, ptr %0, i64 40
  store i32 0, ptr %30, align 8
  %31 = trunc nuw i32 %2 to i8
  %32 = getelementptr inbounds nuw i8, ptr %19, i64 44
  store i8 %31, ptr %32, align 4
  %33 = getelementptr inbounds nuw i8, ptr %19, i64 3152
  %34 = getelementptr inbounds nuw i8, ptr %19, i64 48
  store i32 0, ptr %34, align 8
  %35 = getelementptr inbounds nuw i8, ptr %19, i64 52
  tail call void @llvm.memset.p0.i64(ptr noundef nonnull align 8 dereferenceable(24) %33, i8 0, i64 24, i1 false)
  store i32 %1, ptr %35, align 4
  br label %36

36:                                               ; preds = %16, %3, %21
  %.0 = phi i32 [ 0, %21 ], [ -2, %3 ], [ -3, %16 ]
  ret i32 %.0
}